target datalayout = "e-m:e-p270:32:32-p271:32:32-p272:64:64-i64:64-i128:128-f80:128-n8:16:32:64-S128"
target triple = "x86_64-pc-linux-gnu"

%struct._zend_refcounted_h = type { i32, %union.anon }
%union.anon = type { i32 }
%struct._zend_string = type { %struct._zend_refcounted_h, i64, i64, [1 x i8] }
%struct._zval_struct = type { %union._zend_value, %union.anon.3, %union.anon.6 }
%union._zend_value = type { i64 }
%union.anon.3 = type { i32 }
%union.anon.6 = type { i32 }

; Function Attrs: nounwind uwtable
define internal void @_str_dtor(ptr noundef %0) #0 {
  %2 = alloca i32, align 4
  %3 = alloca ptr, align 8
  %4 = alloca ptr, align 8
  store ptr %0, ptr %3, align 8
  %5 = load ptr, ptr %3, align 8
  %6 = getelementptr inbounds %struct._zval_struct, ptr %5, i32 0, i32 0
  %7 = load ptr, ptr %6, align 8
  store ptr %7, ptr %4, align 8
  %8 = load ptr, ptr %4, align 8
  %9 = getelementptr inbounds %struct._zend_string, ptr %8, i32 0, i32 0
  %10 = getelementptr inbounds %struct._zend_refcounted_h, ptr %9, i32 0, i32 1
  %11 = load i32, ptr %10, align 4
  store i32 %11, ptr %2, align 4
  %12 = load i32, ptr %2, align 4
  %13 = and i32 %12, 1008
  %14 = and i32 %13, 128
  %15 = icmp ne i32 %14, 0
  br i1 %15, label %16, label %18

16:                                               ; preds = %1
  %17 = load ptr, ptr %4, align 8
  call void @free(ptr noundef %17) #8
  br label %20

18:                                               ; preds = %1
  %19 = load ptr, ptr %4, align 8
  call void @_efree(ptr noundef %19)
  br label %20

20:                                               ; preds = %18, %16
  ret void
}