; Function Attrs: nounwind uwtable
define internal void @_str_dtor(ptr nocapture noundef readonly %0) #2 {
  %2 = load ptr, ptr %0, align 8
  %3 = getelementptr inbounds i8, ptr %2, i64 4
  %4 = load i32, ptr %3, align 4
  %5 = and i32 %4, 128
  %.not = icmp eq i32 %5, 0
  br i1 %.not, label %7, label %6

6:                                                ; preds = %1
  tail call void @free(ptr noundef nonnull %2) #16
  br label %8

7:                                                ; preds = %1
  tail call void @_efree(ptr noundef nonnull %2) #16
  br label %8

8:                                                ; preds = %7, %6
  ret void
}